target datalayout = "e-m:e-p270:32:32-p271:32:32-p272:64:64-i64:64-i128:128-f80:128-n8:16:32:64-S128"
target triple = "x86_64-pc-linux-gnu"

%struct.stbte_tilemap = type { [200 x [200 x [8 x i16]]], [200 x [200 x [1 x float]]], i32, i32, i32, i32, i32, i32, i32, i32, i32, i32, i32, i32, [100 x ptr], i32, i32, ptr, i32, i32, i32, i8, i8, i8, i8, i32, i32, i32, [8 x %struct.stbte__layer], i32, i32, i32, i32, i32, i32, i32, i32, i16, [4096 x i8], ptr }
%struct.stbte__layer = type { ptr, i32, i32 }

; Function Attrs: nounwind uwtable
define void @stbte_clear_map(ptr noundef %0) #0 {
  %2 = alloca ptr, align 8
  %3 = alloca i32, align 4
  %4 = alloca i32, align 4
  store ptr %0, ptr %2, align 8, !tbaa !25
  call void @llvm.lifetime.start.p0(i64 4, ptr %3) #8
  call void @llvm.lifetime.start.p0(i64 4, ptr %4) #8
  store i32 0, ptr %3, align 4, !tbaa !13
  br label %5

5:                                                ; preds = %56, %1
  %6 = load i32, ptr %3, align 4, !tbaa !13
  %7 = icmp slt i32 %6, 40000
  br i1 %7, label %8, label %59

8:                                                ; preds = %5
  %9 = load ptr, ptr %2, align 8, !tbaa !25
  %10 = getelementptr inbounds nuw %struct.stbte_tilemap, ptr %9, i32 0, i32 37
  %11 = load i16, ptr %10, align 8, !tbaa !57
  %12 = load ptr, ptr %2, align 8, !tbaa !25
  %13 = getelementptr inbounds nuw %struct.stbte_tilemap, ptr %12, i32 0, i32 0
  %14 = getelementptr inbounds [200 x [200 x [8 x i16]]], ptr %13, i64 0, i64 0
  %15 = load i32, ptr %3, align 4, !tbaa !13
  %16 = sext i32 %15 to i64
  %17 = getelementptr inbounds [200 x [8 x i16]], ptr %14, i64 0, i64 %16
  %18 = getelementptr inbounds [8 x i16], ptr %17, i64 0, i64 0
  store i16 %11, ptr %18, align 8, !tbaa !22
  store i32 1, ptr %4, align 4, !tbaa !13
  br label %19

19:                                               ; preds = %35, %8
  %20 = load i32, ptr %4, align 4, !tbaa !13
  %21 = load ptr, ptr %2, align 8, !tbaa !25
  %22 = getelementptr inbounds nuw %struct.stbte_tilemap, ptr %21, i32 0, i32 4
  %23 = load i32, ptr %22, align 8, !tbaa !30
  %24 = icmp slt i32 %20, %23
  br i1 %24, label %25, label %38

25:                                               ; preds = %19
  %26 = load ptr, ptr %2, align 8, !tbaa !25
  %27 = getelementptr inbounds nuw %struct.stbte_tilemap, ptr %26, i32 0, i32 0
  %28 = getelementptr inbounds [200 x [200 x [8 x i16]]], ptr %27, i64 0, i64 0
  %29 = load i32, ptr %3, align 4, !tbaa !13
  %30 = sext i32 %29 to i64
  %31 = getelementptr inbounds [200 x [8 x i16]], ptr %28, i64 0, i64 %30
  %32 = load i32, ptr %4, align 4, !tbaa !13
  %33 = sext i32 %32 to i64
  %34 = getelementptr inbounds [8 x i16], ptr %31, i64 0, i64 %33
  store i16 -1, ptr %34, align 2, !tbaa !22
  br label %35

35:                                               ; preds = %25
  %36 = load i32, ptr %4, align 4, !tbaa !13
  %37 = add nsw i32 %36, 1
  store i32 %37, ptr %4, align 4, !tbaa !13
  br label %19, !llvm.loop !63

38:                                               ; preds = %19
  store i32 0, ptr %4, align 4, !tbaa !13
  br label %39

39:                                               ; preds = %52, %38
  %40 = load i32, ptr %4, align 4, !tbaa !13
  %41 = icmp slt i32 %40, 1
  br i1 %41, label %42, label %55

42:                                               ; preds = %39
  %43 = load ptr, ptr %2, align 8, !tbaa !25
  %44 = getelementptr inbounds nuw %struct.stbte_tilemap, ptr %43, i32 0, i32 1
  %45 = getelementptr inbounds [200 x [200 x [1 x float]]], ptr %44, i64 0, i64 0
  %46 = load i32, ptr %3, align 4, !tbaa !13
  %47 = sext i32 %46 to i64
  %48 = getelementptr inbounds [200 x [1 x float]], ptr %45, i64 0, i64 %47
  %49 = load i32, ptr %4, align 4, !tbaa !13
  %50 = sext i32 %49 to i64
  %51 = getelementptr inbounds [1 x float], ptr %48, i64 0, i64 %50
  store float 0.000000e+00, ptr %51, align 4, !tbaa !64
  br label %52

52:                                               ; preds = %42
  %53 = load i32, ptr %4, align 4, !tbaa !13
  %54 = add nsw i32 %53, 1
  store i32 %54, ptr %4, align 4, !tbaa !13
  br label %39, !llvm.loop !65

55:                                               ; preds = %39
  br label %56

56:                                               ; preds = %55
  %57 = load i32, ptr %3, align 4, !tbaa !13
  %58 = add nsw i32 %57, 1
  store i32 %58, ptr %3, align 4, !tbaa !13
  br label %5, !llvm.loop !66

59:                                               ; preds = %5
  call void @llvm.lifetime.end.p0(i64 4, ptr %4) #8
  call void @llvm.lifetime.end.p0(i64 4, ptr %3) #8
  ret void
}