; Function Attrs: nofree norecurse nosync nounwind memory(argmem: readwrite) uwtable
define void @stbte_clear_map(ptr noundef captures(none) %0) local_unnamed_addr #4 {
  %2 = getelementptr inbounds nuw i8, ptr %0, i64 801056
  %3 = getelementptr inbounds nuw i8, ptr %0, i64 800008
  %4 = load i32, ptr %3, align 8, !tbaa !28
  %5 = icmp sgt i32 %4, 1
  %6 = getelementptr inbounds nuw i8, ptr %0, i64 640000
  br i1 %5, label %.lr.ph.us.preheader, label %.critedge.preheader

.critedge.preheader:                              ; preds = %1
  %.pre = load i16, ptr %2, align 8, !tbaa !46
  br label %.critedge

.lr.ph.us.preheader:                              ; preds = %1
  %7 = add nsw i32 %4, -1
  %8 = zext nneg i32 %7 to i64
  %9 = shl nuw nsw i64 %8, 1
  br label %.lr.ph.us

.lr.ph.us:                                        ; preds = %.lr.ph.us.preheader, %.lr.ph.us
  %indvar = phi i64 [ 0, %.lr.ph.us.preheader ], [ %indvar.next, %.lr.ph.us ]
  %10 = shl nuw nsw i64 %indvar, 4
  %11 = or disjoint i64 %10, 2
  %scevgep = getelementptr nuw i8, ptr %0, i64 %11
  %12 = load i16, ptr %2, align 8, !tbaa !46
  %13 = getelementptr inbounds nuw [200 x [8 x i16]], ptr %0, i64 0, i64 %indvar
  store i16 %12, ptr %13, align 8, !tbaa !21
  tail call void @llvm.memset.p0.i64(ptr nonnull align 2 %scevgep, i8 -1, i64 %9, i1 false), !tbaa !21
  %14 = getelementptr inbounds nuw [200 x [1 x float]], ptr %6, i64 0, i64 %indvar
  store float 0.000000e+00, ptr %14, align 4, !tbaa !48
  %indvar.next = add nuw nsw i64 %indvar, 1
  %exitcond26.not = icmp eq i64 %indvar.next, 40000
  br i1 %exitcond26.not, label %.split19.us, label %.lr.ph.us, !llvm.loop !49

.critedge:                                        ; preds = %.critedge.preheader, %.critedge
  %indvars.iv = phi i64 [ 0, %.critedge.preheader ], [ %indvars.iv.next, %.critedge ]
  %15 = getelementptr inbounds nuw [200 x [8 x i16]], ptr %0, i64 0, i64 %indvars.iv
  store i16 %.pre, ptr %15, align 8, !tbaa !21
  %16 = getelementptr inbounds nuw [200 x [1 x float]], ptr %6, i64 0, i64 %indvars.iv
  store float 0.000000e+00, ptr %16, align 4, !tbaa !48
  %indvars.iv.next = add nuw nsw i64 %indvars.iv, 1
  %exitcond.not = icmp eq i64 %indvars.iv.next, 40000
  br i1 %exitcond.not, label %.split19.us, label %.critedge, !llvm.loop !49

.split19.us:                                      ; preds = %.critedge, %.lr.ph.us
  ret void
}